; Function Attrs: mustprogress nounwind uwtable
define hidden noundef nonnull align 8 dereferenceable(544) ptr @_ZN6evmone2VM19get_execution_stateEm(ptr noundef nonnull align 8 dereferenceable(96) %0, i64 noundef %1) local_unnamed_addr #3 align 2 {
  %3 = getelementptr inbounds nuw i8, ptr %0, i64 64
  %4 = getelementptr inbounds nuw i8, ptr %0, i64 72
  %5 = load ptr, ptr %4, align 8, !tbaa !33
  %6 = load ptr, ptr %3, align 8, !tbaa !32
  %7 = ptrtoint ptr %5 to i64
  %8 = ptrtoint ptr %6 to i64
  %9 = sub i64 %7, %8
  %10 = sdiv exact i64 %9, 544
  %.not = icmp ugt i64 %10, %1
  br i1 %.not, label %_ZNSt6vectorIN6evmone14ExecutionStateESaIS1_EE6resizeEm.exit, label %11

11:                                               ; preds = %2
  %12 = add i64 %1, 1
  %13 = icmp ugt i64 %12, %10
  br i1 %13, label %14, label %16

14:                                               ; preds = %11
  %15 = sub nuw i64 %12, %10
  tail call void @_ZNSt6vectorIN6evmone14ExecutionStateESaIS1_EE17_M_default_appendEm(ptr noundef nonnull align 8 dereferenceable(24) %3, i64 noundef %15)
  br label %_ZNSt6vectorIN6evmone14ExecutionStateESaIS1_EE6resizeEm.exit

16:                                               ; preds = %11
  %17 = icmp ult i64 %12, %10
  br i1 %17, label %18, label %_ZNSt6vectorIN6evmone14ExecutionStateESaIS1_EE6resizeEm.exit

18:                                               ; preds = %16
  %19 = getelementptr inbounds nuw %"class.evmone::ExecutionState", ptr %6, i64 %12
  %.not.i.i = icmp eq ptr %5, %19
  br i1 %.not.i.i, label %_ZNSt6vectorIN6evmone14ExecutionStateESaIS1_EE6resizeEm.exit, label %.lr.ph.i.i.i.i.i

.lr.ph.i.i.i.i.i:                                 ; preds = %18, %.lr.ph.i.i.i.i.i
  %.05.i.i.i.i.i = phi ptr [ %20, %.lr.ph.i.i.i.i.i ], [ %19, %18 ]
  tail call void @_ZN6evmone14ExecutionStateD2Ev(ptr noundef nonnull align 8 dereferenceable(544) %.05.i.i.i.i.i) #23
  %20 = getelementptr inbounds nuw i8, ptr %.05.i.i.i.i.i, i64 544
  %.not.i.i.i.i.i = icmp eq ptr %20, %5
  br i1 %.not.i.i.i.i.i, label %_ZSt8_DestroyIPN6evmone14ExecutionStateES1_EvT_S3_RSaIT0_E.exit.i.i, label %.lr.ph.i.i.i.i.i, !llvm.loop !40

_ZSt8_DestroyIPN6evmone14ExecutionStateES1_EvT_S3_RSaIT0_E.exit.i.i: ; preds = %.lr.ph.i.i.i.i.i
  store ptr %19, ptr %4, align 8, !tbaa !33
  br label %_ZNSt6vectorIN6evmone14ExecutionStateESaIS1_EE6resizeEm.exit

_ZNSt6vectorIN6evmone14ExecutionStateESaIS1_EE6resizeEm.exit: ; preds = %_ZSt8_DestroyIPN6evmone14ExecutionStateES1_EvT_S3_RSaIT0_E.exit.i.i, %18, %16, %14, %2
  %21 = load ptr, ptr %3, align 8, !tbaa !32
  %22 = getelementptr inbounds nuw %"class.evmone::ExecutionState", ptr %21, i64 %1
  ret ptr %22
}